target datalayout = "e-m:e-p270:32:32-p271:32:32-p272:64:64-i64:64-i128:128-f80:128-n8:16:32:64-S128"
target triple = "x86_64-pc-linux-gnu"

%struct.mbedtls_ssl_context = type { ptr, i32, i32, i32, i32, i32, ptr, ptr, ptr, ptr, ptr, ptr, ptr, ptr, ptr, ptr, ptr, ptr, ptr, ptr, ptr, ptr, ptr, ptr, ptr, ptr, ptr, ptr, ptr, ptr, ptr, ptr, ptr, i32, i64, i64, i16, i64, i64, i64, i64, i32, i32, i8, i8, i32, i8, ptr, ptr, ptr, ptr, ptr, ptr, ptr, i32, i64, i64, [8 x i8], i16, ptr, ptr, ptr, i64, i32, i64, [12 x i8], [12 x i8], [32 x i8], i8, i8, ptr, ptr, %union.mbedtls_ssl_user_data_t }
%union.mbedtls_ssl_user_data_t = type { i64 }
%struct.mbedtls_ssl_config = type { i32, i32, i8, i8, i8, i8, i8, i8, i8, i8, i8, i8, i16, i8, i8, i8, ptr, i32, ptr, ptr, ptr, ptr, ptr, ptr, ptr, ptr, ptr, ptr, ptr, ptr, ptr, ptr, ptr, ptr, ptr, ptr, ptr, i64, ptr, ptr, ptr, ptr, ptr, ptr, ptr, ptr, %struct.mbedtls_mpi, %struct.mbedtls_mpi, ptr, i64, ptr, i64, ptr, i32, i32, i32, i32, [8 x i8], i32, i32, %union.mbedtls_ssl_user_data_t, ptr, ptr }
%struct.mbedtls_mpi = type { ptr, i16, i16 }
%struct.mbedtls_ssl_handshake_params = type { i8, i8, i8, i8, i8, i32, i8, i8, i8, i8, ptr, ptr, ptr, ptr, ptr, i8, i8, i8, i8, i16, i16, [20 x i16], ptr, ptr, %struct.mbedtls_dhm_context, %struct.mbedtls_ecdh_context, i16, i64, i32, i8, [1024 x i8], i64, ptr, ptr, i64, i16, ptr, ptr, ptr, ptr, %struct.anon, ptr, i16, i8, i32, i32, i32, ptr, ptr, ptr, i32, ptr, [8 x i8], i8, [32 x i8], i8, i16, %struct.mbedtls_md_context_t, %struct.mbedtls_md_context_t, i16, i8, %union.anon.1, [64 x i8], [1076 x i8], i64, i32, i32, i8, ptr, ptr, %union.anon.4, %struct.mbedtls_ssl_tls13_handshake_secrets, ptr, i64, ptr }
%struct.mbedtls_dhm_context = type { %struct.mbedtls_mpi, %struct.mbedtls_mpi, %struct.mbedtls_mpi, %struct.mbedtls_mpi, %struct.mbedtls_mpi, %struct.mbedtls_mpi, %struct.mbedtls_mpi, %struct.mbedtls_mpi, %struct.mbedtls_mpi, %struct.mbedtls_mpi }
%struct.mbedtls_ecdh_context = type { i8, i32, i32, %union.anon }
%union.anon = type { %struct.mbedtls_ecdh_context_mbed }
%struct.mbedtls_ecdh_context_mbed = type { %struct.mbedtls_ecp_group, %struct.mbedtls_mpi, %struct.mbedtls_ecp_point, %struct.mbedtls_ecp_point, %struct.mbedtls_mpi }
%struct.mbedtls_ecp_group = type { i32, %struct.mbedtls_mpi, %struct.mbedtls_mpi, %struct.mbedtls_mpi, %struct.mbedtls_ecp_point, %struct.mbedtls_mpi, i64, i64, i32, ptr, ptr, ptr, ptr, ptr, i64 }
%struct.mbedtls_ecp_point = type { %struct.mbedtls_mpi, %struct.mbedtls_mpi, %struct.mbedtls_mpi }
%struct.anon = type { i64, i8, [4 x %struct.mbedtls_ssl_hs_buffer], %struct.anon.0 }
%struct.mbedtls_ssl_hs_buffer = type { i8, ptr, i64 }
%struct.anon.0 = type { ptr, i64, i32 }
%struct.mbedtls_md_context_t = type { ptr, ptr, ptr }
%union.anon.1 = type { %struct.anon.2 }
%struct.anon.2 = type { i8, [64 x i8], i64 }
%union.anon.4 = type { [64 x i8] }
%struct.mbedtls_ssl_tls13_handshake_secrets = type { [64 x i8], [64 x i8] }

@.str = private unnamed_addr constant [130 x i8] c"generated/home/dtcxzyw/WorkSpace/Projects/compilers/llvm-opt-benchmark/bench/lief/bench_build/mbed_src/library/ssl_tls12_client.c\00", align 1
@.str.66 = private unnamed_addr constant [25 x i8] c"CID extension unexpected\00", align 1
@.str.67 = private unnamed_addr constant [22 x i8] c"CID extension invalid\00", align 1
@.str.68 = private unnamed_addr constant [32 x i8] c"Use of CID extension negotiated\00", align 1
@.str.69 = private unnamed_addr constant [11 x i8] c"Server CID\00", align 1

; Function Attrs: nounwind uwtable
define internal i32 @ssl_parse_cid_ext(ptr noundef %0, ptr noundef %1, i64 noundef %2) #0 {
  %4 = alloca i32, align 4
  %5 = alloca ptr, align 8
  %6 = alloca ptr, align 8
  %7 = alloca i64, align 8
  %8 = alloca i64, align 8
  %9 = alloca i32, align 4
  store ptr %0, ptr %5, align 8, !tbaa !3
  store ptr %1, ptr %6, align 8, !tbaa !8
  store i64 %2, ptr %7, align 8, !tbaa !14
  call void @llvm.lifetime.start.p0(i64 8, ptr %8) #11
  %10 = load ptr, ptr %5, align 8, !tbaa !3
  %11 = getelementptr inbounds nuw %struct.mbedtls_ssl_context, ptr %10, i32 0, i32 0
  %12 = load ptr, ptr %11, align 8, !tbaa !25
  %13 = getelementptr inbounds nuw %struct.mbedtls_ssl_config, ptr %12, i32 0, i32 3
  %14 = load i8, ptr %13, align 1, !tbaa !26
  %15 = zext i8 %14 to i32
  %16 = icmp ne i32 %15, 1
  br i1 %16, label %23, label %17

17:                                               ; preds = %3
  %18 = load ptr, ptr %5, align 8, !tbaa !3
  %19 = getelementptr inbounds nuw %struct.mbedtls_ssl_context, ptr %18, i32 0, i32 69
  %20 = load i8, ptr %19, align 1, !tbaa !37
  %21 = zext i8 %20 to i32
  %22 = icmp eq i32 %21, 0
  br i1 %22, label %23, label %27

23:                                               ; preds = %17, %3
  %24 = load ptr, ptr %5, align 8, !tbaa !3
  call void (ptr, i32, ptr, i32, ptr, ...) @mbedtls_debug_print_msg(ptr noundef %24, i32 noundef 1, ptr noundef @.str, i32 noundef 694, ptr noundef @.str.66)
  %25 = load ptr, ptr %5, align 8, !tbaa !3
  %26 = call i32 @mbedtls_ssl_send_alert_message(ptr noundef %25, i8 noundef zeroext 2, i8 noundef zeroext 110)
  store i32 -29952, ptr %4, align 4
  store i32 1, ptr %9, align 4
  br label %77

27:                                               ; preds = %17
  %28 = load i64, ptr %7, align 8, !tbaa !14
  %29 = icmp eq i64 %28, 0
  br i1 %29, label %30, label %34

30:                                               ; preds = %27
  %31 = load ptr, ptr %5, align 8, !tbaa !3
  call void (ptr, i32, ptr, i32, ptr, ...) @mbedtls_debug_print_msg(ptr noundef %31, i32 noundef 1, ptr noundef @.str, i32 noundef 701, ptr noundef @.str.67)
  %32 = load ptr, ptr %5, align 8, !tbaa !3
  %33 = call i32 @mbedtls_ssl_send_alert_message(ptr noundef %32, i8 noundef zeroext 2, i8 noundef zeroext 50)
  store i32 -29440, ptr %4, align 4
  store i32 1, ptr %9, align 4
  br label %77

34:                                               ; preds = %27
  %35 = load ptr, ptr %6, align 8, !tbaa !8
  %36 = getelementptr inbounds nuw i8, ptr %35, i32 1
  store ptr %36, ptr %6, align 8, !tbaa !8
  %37 = load i8, ptr %35, align 1, !tbaa !24
  %38 = zext i8 %37 to i64
  store i64 %38, ptr %8, align 8, !tbaa !14
  %39 = load i64, ptr %7, align 8, !tbaa !14
  %40 = add i64 %39, -1
  store i64 %40, ptr %7, align 8, !tbaa !14
  %41 = load i64, ptr %8, align 8, !tbaa !14
  %42 = icmp ugt i64 %41, 32
  br i1 %42, label %43, label %47

43:                                               ; preds = %34
  %44 = load ptr, ptr %5, align 8, !tbaa !3
  call void (ptr, i32, ptr, i32, ptr, ...) @mbedtls_debug_print_msg(ptr noundef %44, i32 noundef 1, ptr noundef @.str, i32 noundef 711, ptr noundef @.str.67)
  %45 = load ptr, ptr %5, align 8, !tbaa !3
  %46 = call i32 @mbedtls_ssl_send_alert_message(ptr noundef %45, i8 noundef zeroext 2, i8 noundef zeroext 47)
  store i32 -26112, ptr %4, align 4
  store i32 1, ptr %9, align 4
  br label %77

47:                                               ; preds = %34
  %48 = load i64, ptr %7, align 8, !tbaa !14
  %49 = load i64, ptr %8, align 8, !tbaa !14
  %50 = icmp ne i64 %48, %49
  br i1 %50, label %51, label %55

51:                                               ; preds = %47
  %52 = load ptr, ptr %5, align 8, !tbaa !3
  call void (ptr, i32, ptr, i32, ptr, ...) @mbedtls_debug_print_msg(ptr noundef %52, i32 noundef 1, ptr noundef @.str, i32 noundef 718, ptr noundef @.str.67)
  %53 = load ptr, ptr %5, align 8, !tbaa !3
  %54 = call i32 @mbedtls_ssl_send_alert_message(ptr noundef %53, i8 noundef zeroext 2, i8 noundef zeroext 50)
  store i32 -29440, ptr %4, align 4
  store i32 1, ptr %9, align 4
  br label %77

55:                                               ; preds = %47
  %56 = load ptr, ptr %5, align 8, !tbaa !3
  %57 = getelementptr inbounds nuw %struct.mbedtls_ssl_context, ptr %56, i32 0, i32 16
  %58 = load ptr, ptr %57, align 8, !tbaa !48
  %59 = getelementptr inbounds nuw %struct.mbedtls_ssl_handshake_params, ptr %58, i32 0, i32 53
  store i8 1, ptr %59, align 8, !tbaa !118
  %60 = load i64, ptr %8, align 8, !tbaa !14
  %61 = trunc i64 %60 to i8
  %62 = load ptr, ptr %5, align 8, !tbaa !3
  %63 = getelementptr inbounds nuw %struct.mbedtls_ssl_context, ptr %62, i32 0, i32 16
  %64 = load ptr, ptr %63, align 8, !tbaa !48
  %65 = getelementptr inbounds nuw %struct.mbedtls_ssl_handshake_params, ptr %64, i32 0, i32 55
  store i8 %61, ptr %65, align 1, !tbaa !119
  %66 = load ptr, ptr %5, align 8, !tbaa !3
  %67 = getelementptr inbounds nuw %struct.mbedtls_ssl_context, ptr %66, i32 0, i32 16
  %68 = load ptr, ptr %67, align 8, !tbaa !48
  %69 = getelementptr inbounds nuw %struct.mbedtls_ssl_handshake_params, ptr %68, i32 0, i32 54
  %70 = getelementptr inbounds [32 x i8], ptr %69, i64 0, i64 0
  %71 = load ptr, ptr %6, align 8, !tbaa !8
  %72 = load i64, ptr %8, align 8, !tbaa !14
  call void @llvm.memcpy.p0.p0.i64(ptr align 1 %70, ptr align 1 %71, i64 %72, i1 false)
  %73 = load ptr, ptr %5, align 8, !tbaa !3
  call void (ptr, i32, ptr, i32, ptr, ...) @mbedtls_debug_print_msg(ptr noundef %73, i32 noundef 3, ptr noundef @.str, i32 noundef 728, ptr noundef @.str.68)
  %74 = load ptr, ptr %5, align 8, !tbaa !3
  %75 = load ptr, ptr %6, align 8, !tbaa !8
  %76 = load i64, ptr %8, align 8, !tbaa !14
  call void @mbedtls_debug_print_buf(ptr noundef %74, i32 noundef 3, ptr noundef @.str, i32 noundef 729, ptr noundef @.str.69, ptr noundef %75, i64 noundef %76)
  store i32 0, ptr %4, align 4
  store i32 1, ptr %9, align 4
  br label %77

77:                                               ; preds = %55, %51, %43, %30, %23
  call void @llvm.lifetime.end.p0(i64 8, ptr %8) #11
  %78 = load i32, ptr %4, align 4
  ret i32 %78
}