; Function Attrs: nounwind uwtable
define internal fastcc range(i32 -29952, 1) i32 @ssl_parse_cid_ext(ptr noundef %0, ptr noundef %1, i64 noundef range(i64 0, 65536) %2) unnamed_addr #0 {
  %4 = load ptr, ptr %0, align 8, !tbaa !19
  %5 = getelementptr inbounds nuw i8, ptr %4, i64 9
  %6 = load i8, ptr %5, align 1, !tbaa !20
  %.not = icmp eq i8 %6, 1
  br i1 %.not, label %7, label %11

7:                                                ; preds = %3
  %8 = getelementptr inbounds nuw i8, ptr %0, i64 537
  %9 = load i8, ptr %8, align 1, !tbaa !32
  %10 = icmp eq i8 %9, 0
  br i1 %10, label %11, label %13

11:                                               ; preds = %7, %3
  tail call void (ptr, i32, ptr, i32, ptr, ...) @mbedtls_debug_print_msg(ptr noundef nonnull %0, i32 noundef 1, ptr noundef nonnull @.str, i32 noundef 694, ptr noundef nonnull @.str.66) #14
  %12 = tail call i32 @mbedtls_ssl_send_alert_message(ptr noundef nonnull %0, i8 noundef zeroext 2, i8 noundef zeroext 110) #14
  br label %34

13:                                               ; preds = %7
  %14 = icmp eq i64 %2, 0
  br i1 %14, label %15, label %17

15:                                               ; preds = %13
  tail call void (ptr, i32, ptr, i32, ptr, ...) @mbedtls_debug_print_msg(ptr noundef nonnull %0, i32 noundef 1, ptr noundef nonnull @.str, i32 noundef 701, ptr noundef nonnull @.str.67) #14
  %16 = tail call i32 @mbedtls_ssl_send_alert_message(ptr noundef nonnull %0, i8 noundef zeroext 2, i8 noundef zeroext 50) #14
  br label %34

17:                                               ; preds = %13
  %18 = getelementptr inbounds nuw i8, ptr %1, i64 1
  %19 = load i8, ptr %1, align 1, !tbaa !18
  %20 = zext i8 %19 to i64
  %21 = icmp ugt i8 %19, 32
  br i1 %21, label %22, label %24

22:                                               ; preds = %17
  tail call void (ptr, i32, ptr, i32, ptr, ...) @mbedtls_debug_print_msg(ptr noundef nonnull %0, i32 noundef 1, ptr noundef nonnull @.str, i32 noundef 711, ptr noundef nonnull @.str.67) #14
  %23 = tail call i32 @mbedtls_ssl_send_alert_message(ptr noundef nonnull %0, i8 noundef zeroext 2, i8 noundef zeroext 47) #14
  br label %34

24:                                               ; preds = %17
  %25 = add nsw i64 %2, -1
  %.not28 = icmp eq i64 %25, %20
  br i1 %.not28, label %28, label %26

26:                                               ; preds = %24
  tail call void (ptr, i32, ptr, i32, ptr, ...) @mbedtls_debug_print_msg(ptr noundef nonnull %0, i32 noundef 1, ptr noundef nonnull @.str, i32 noundef 718, ptr noundef nonnull @.str.67) #14
  %27 = tail call i32 @mbedtls_ssl_send_alert_message(ptr noundef nonnull %0, i8 noundef zeroext 2, i8 noundef zeroext 50) #14
  br label %34

28:                                               ; preds = %24
  %29 = getelementptr inbounds nuw i8, ptr %0, i64 112
  %30 = load ptr, ptr %29, align 8, !tbaa !44
  %31 = getelementptr inbounds nuw i8, ptr %30, i64 1944
  store i8 1, ptr %31, align 8, !tbaa !115
  %32 = getelementptr inbounds nuw i8, ptr %30, i64 1977
  store i8 %19, ptr %32, align 1, !tbaa !116
  %33 = getelementptr inbounds nuw i8, ptr %30, i64 1945
  tail call void @llvm.memcpy.p0.p0.i64(ptr nonnull align 1 %33, ptr nonnull align 1 %18, i64 %20, i1 false)
  tail call void (ptr, i32, ptr, i32, ptr, ...) @mbedtls_debug_print_msg(ptr noundef nonnull %0, i32 noundef 3, ptr noundef nonnull @.str, i32 noundef 728, ptr noundef nonnull @.str.68) #14
  tail call void @mbedtls_debug_print_buf(ptr noundef nonnull %0, i32 noundef 3, ptr noundef nonnull @.str, i32 noundef 729, ptr noundef nonnull @.str.69, ptr noundef nonnull %18, i64 noundef %20) #14
  br label %34

34:                                               ; preds = %28, %26, %22, %15, %11
  %.0 = phi i32 [ -29952, %11 ], [ -29440, %15 ], [ -26112, %22 ], [ -29440, %26 ], [ 0, %28 ]
  ret i32 %.0
}